target datalayout = "e-m:e-p270:32:32-p271:32:32-p272:64:64-i64:64-i128:128-f80:128-n8:16:32:64-S128"
target triple = "x86_64-unknown-linux-gnu"

%"class.llvh::StringRef" = type { ptr, i64 }
%"class.std::__cxx11::basic_string" = type { %"struct.std::__cxx11::basic_string<char>::_Alloc_hider", i64, %union.anon.39 }
%"struct.std::__cxx11::basic_string<char>::_Alloc_hider" = type { ptr }
%union.anon.39 = type { i64, [8 x i8] }
%"class.std::allocator.36" = type { i8 }
%"class.hermes::hbc::RuntimeFunctionHeader" = type { ptr }
%"class.hermes::hbc::BCProviderBase" = type { ptr, %"union.hermes::hbc::BytecodeOptions", i32, i32, i32, %"class.llvh::ArrayRef.87", %"class.llvh::ArrayRef.88", %"class.llvh::ArrayRef", %"class.llvh::ArrayRef", %"class.llvh::ArrayRef", %"class.llvh::ArrayRef", %"class.llvh::ArrayRef.89", %"class.llvh::ArrayRef", %"class.llvh::ArrayRef.90", %"class.llvh::ArrayRef", i32, %"class.llvh::ArrayRef.91", %"class.llvh::ArrayRef.91", %"class.llvh::ArrayRef.91", ptr, %"class.std::__cxx11::basic_string" }
%"union.hermes::hbc::BytecodeOptions" = type { %struct.anon.86 }
%struct.anon.86 = type { i8 }
%"class.llvh::ArrayRef.87" = type { ptr, i64 }
%"class.llvh::ArrayRef.88" = type { ptr, i64 }
%"class.llvh::ArrayRef.89" = type { ptr, i64 }
%"class.llvh::ArrayRef.90" = type { ptr, i64 }
%"class.llvh::ArrayRef" = type { ptr, i64 }
%"class.llvh::ArrayRef.91" = type { ptr, i64 }
%"class.hermes::hbc::BCProviderFromBuffer" = type { %"class.hermes::hbc::BCProviderBase", %"class.std::unique_ptr.92", ptr, ptr, ptr, %"class.llvh::ArrayRef.100", i32, [4 x i8], %"class.llvh::Optional.101", %"struct.std::atomic", %"class.std::unique_ptr.106", ptr }
%"class.std::unique_ptr.92" = type { %"struct.std::__uniq_ptr_data.93" }
%"struct.std::__uniq_ptr_data.93" = type { %"class.std::__uniq_ptr_impl.94" }
%"class.std::__uniq_ptr_impl.94" = type { %"class.std::tuple.95" }
%"class.std::tuple.95" = type { %"struct.std::_Tuple_impl.96" }
%"struct.std::_Tuple_impl.96" = type { %"struct.std::_Head_base.99" }
%"struct.std::_Head_base.99" = type { ptr }
%"class.llvh::ArrayRef.100" = type { ptr, i64 }
%"class.llvh::Optional.101" = type { %"struct.llvh::optional_detail::OptionalStorage.102" }
%"struct.llvh::optional_detail::OptionalStorage.102" = type { %"struct.llvh::AlignedCharArrayUnion.103", i8, [7 x i8] }
%"struct.llvh::AlignedCharArrayUnion.103" = type { %"struct.llvh::AlignedCharArray.104" }
%"struct.llvh::AlignedCharArray.104" = type { [8 x i8] }
%"struct.std::atomic" = type { %"struct.std::__atomic_base" }
%"struct.std::__atomic_base" = type { i8 }
%"class.std::unique_ptr.106" = type { %"struct.std::__uniq_ptr_data.107" }
%"struct.std::__uniq_ptr_data.107" = type { %"class.std::__uniq_ptr_impl.108" }
%"class.std::__uniq_ptr_impl.108" = type { %"class.std::tuple.109" }
%"class.std::tuple.109" = type { %"struct.std::_Tuple_impl.110" }
%"struct.std::_Tuple_impl.110" = type { %"struct.std::_Head_base.113" }
%"struct.std::_Head_base.113" = type { ptr }
%"struct.hermes::hbc::SmallFuncHeader" = type { [15 x i8], %"union.hermes::hbc::FunctionHeaderFlag" }
%"union.hermes::hbc::FunctionHeaderFlag" = type { %struct.anon.114 }
%struct.anon.114 = type { i8 }
%"class.hermes::StringTableEntry" = type { i32, i32 }
%"struct.hermes::hbc::FunctionHeader" = type <{ i32, i32, i32, i32, i32, i32, i32, i8, i8, %"union.hermes::hbc::FunctionHeaderFlag" }>

; Function Attrs: mustprogress nounwind uwtable
define linkonce_odr hidden noundef i32 @_ZNK6hermes16StringTableEntry9getLengthEv(ptr noundef nonnull align 4 dereferenceable(8) %this) #0 comdat align 2 {
entry:
  %this.addr = alloca ptr, align 8
  store ptr %this, ptr %this.addr, align 8
  %this1 = load ptr, ptr %this.addr, align 8
  %length_ = getelementptr inbounds %"class.hermes::StringTableEntry", ptr %this1, i32 0, i32 1
  %0 = load i32, ptr %length_, align 4
  %and = and i32 %0, 2147483647
  ret i32 %and
}

; Function Attrs: mustprogress nounwind uwtable
define linkonce_odr hidden noundef i32 @_ZNK6hermes16StringTableEntry9getOffsetEv(ptr noundef nonnull align 4 dereferenceable(8) %this) #0 comdat align 2 {
entry:
  %this.addr = alloca ptr, align 8
  store ptr %this, ptr %this.addr, align 8
  %this1 = load ptr, ptr %this.addr, align 8
  %offset_ = getelementptr inbounds %"class.hermes::StringTableEntry", ptr %this1, i32 0, i32 0
  %0 = load i32, ptr %offset_, align 4
  ret i32 %0
}

; Function Attrs: mustprogress nounwind uwtable
define linkonce_odr hidden noundef ptr @_ZNK4llvh8ArrayRefIhE5beginEv(ptr noundef nonnull align 8 dereferenceable(16) %this) #0 comdat align 2 {
entry:
  %this.addr = alloca ptr, align 8
  store ptr %this, ptr %this.addr, align 8
  %this1 = load ptr, ptr %this.addr, align 8
  %Data = getelementptr inbounds %"class.llvh::ArrayRef", ptr %this1, i32 0, i32 0
  %0 = load ptr, ptr %Data, align 8
  ret ptr %0
}

; Function Attrs: mustprogress nounwind uwtable
define linkonce_odr hidden { ptr, i64 } @_ZNK6hermes3hbc14BCProviderBase16getStringStorageEv(ptr noundef nonnull align 8 dereferenceable(280) %this) #0 comdat align 2 {
entry:
  %retval = alloca %"class.llvh::ArrayRef", align 8
  %this.addr = alloca ptr, align 8
  store ptr %this, ptr %this.addr, align 8
  %this1 = load ptr, ptr %this.addr, align 8
  %stringStorage_ = getelementptr inbounds %"class.hermes::hbc::BCProviderBase", ptr %this1, i32 0, i32 7
  call void @llvm.memcpy.p0.p0.i64(ptr align 8 %retval, ptr align 8 %stringStorage_, i64 16, i1 false)
  %0 = load { ptr, i64 }, ptr %retval, align 8
  ret { ptr, i64 } %0
}

; Function Attrs: mustprogress nounwind uwtable
define linkonce_odr hidden noundef ptr @_ZNK6hermes3hbc21RuntimeFunctionHeader7asSmallEv(ptr noundef nonnull align 8 dereferenceable(8) %this) #0 comdat align 2 {
entry:
  %this.addr = alloca ptr, align 8
  store ptr %this, ptr %this.addr, align 8
  %this1 = load ptr, ptr %this.addr, align 8
  %ptr_ = getelementptr inbounds %"class.hermes::hbc::RuntimeFunctionHeader", ptr %this1, i32 0, i32 0
  %0 = load ptr, ptr %ptr_, align 8
  ret ptr %0
}

; Function Attrs: mustprogress nounwind uwtable
define linkonce_odr hidden noundef ptr @_ZNK6hermes3hbc21RuntimeFunctionHeader7asLargeEv(ptr noundef nonnull align 8 dereferenceable(8) %this) #0 comdat align 2 {
entry:
  %this.addr = alloca ptr, align 8
  store ptr %this, ptr %this.addr, align 8
  %this1 = load ptr, ptr %this.addr, align 8
  %ptr_ = getelementptr inbounds %"class.hermes::hbc::RuntimeFunctionHeader", ptr %this1, i32 0, i32 0
  %0 = load ptr, ptr %ptr_, align 8
  %add.ptr = getelementptr inbounds i8, ptr %0, i64 -1
  ret ptr %add.ptr
}

; Function Attrs: mustprogress nounwind uwtable
define linkonce_odr hidden noundef zeroext i1 @_ZNK6hermes3hbc21RuntimeFunctionHeader7isLargeEv(ptr noundef nonnull align 8 dereferenceable(8) %this) #0 comdat align 2 {
entry:
  %this.addr = alloca ptr, align 8
  store ptr %this, ptr %this.addr, align 8
  %this1 = load ptr, ptr %this.addr, align 8
  %ptr_ = getelementptr inbounds %"class.hermes::hbc::RuntimeFunctionHeader", ptr %this1, i32 0, i32 0
  %0 = load ptr, ptr %ptr_, align 8
  %1 = ptrtoint ptr %0 to i64
  %and = and i64 %1, 1
  %tobool = icmp ne i64 %and, 0
  ret i1 %tobool
}

; Function Attrs: mustprogress nounwind uwtable
define linkonce_odr hidden void @_ZN6hermes3hbc21RuntimeFunctionHeaderC2EPKNS0_15SmallFuncHeaderE(ptr noundef nonnull align 8 dereferenceable(8) %this, ptr noundef %smallHeader) unnamed_addr #0 comdat align 2 {
entry:
  %this.addr = alloca ptr, align 8
  %smallHeader.addr = alloca ptr, align 8
  store ptr %this, ptr %this.addr, align 8
  store ptr %smallHeader, ptr %smallHeader.addr, align 8
  %this1 = load ptr, ptr %this.addr, align 8
  %ptr_ = getelementptr inbounds %"class.hermes::hbc::RuntimeFunctionHeader", ptr %this1, i32 0, i32 0
  %0 = load ptr, ptr %smallHeader.addr, align 8
  store ptr %0, ptr %ptr_, align 8
  ret void
}

; Function Attrs: mustprogress nounwind uwtable
define linkonce_odr hidden void @_ZN6hermes3hbc21RuntimeFunctionHeaderC2EPKNS0_14FunctionHeaderE(ptr noundef nonnull align 8 dereferenceable(8) %this, ptr noundef %large) unnamed_addr #0 comdat align 2 {
entry:
  %this.addr = alloca ptr, align 8
  %large.addr = alloca ptr, align 8
  store ptr %this, ptr %this.addr, align 8
  store ptr %large, ptr %large.addr, align 8
  %this1 = load ptr, ptr %this.addr, align 8
  %ptr_ = getelementptr inbounds %"class.hermes::hbc::RuntimeFunctionHeader", ptr %this1, i32 0, i32 0
  %0 = load ptr, ptr %large.addr, align 8
  %add.ptr = getelementptr inbounds i8, ptr %0, i64 1
  store ptr %add.ptr, ptr %ptr_, align 8
  ret void
}

; Function Attrs: mustprogress nounwind uwtable
define linkonce_odr hidden noundef i32 @_ZNK6hermes3hbc15SmallFuncHeader20getLargeHeaderOffsetEv(ptr noundef nonnull align 1 dereferenceable(16) %this) #0 comdat align 2 {
entry:
  %this.addr = alloca ptr, align 8
  store ptr %this, ptr %this.addr, align 8
  %this1 = load ptr, ptr %this.addr, align 8
  %bf.load = load i120, ptr %this1, align 1
  %bf.lshr = lshr i120 %bf.load, 64
  %bf.clear = and i120 %bf.lshr, 33554431
  %bf.cast = trunc i120 %bf.clear to i32
  %shl = shl i32 %bf.cast, 16
  %bf.load2 = load i120, ptr %this1, align 1
  %bf.clear3 = and i120 %bf.load2, 33554431
  %bf.cast4 = trunc i120 %bf.clear3 to i32
  %or = or i32 %shl, %bf.cast4
  ret i32 %or
}

; Function Attrs: mustprogress nounwind uwtable
define linkonce_odr hidden void @_ZNK4llvh9StringRef3strB5cxx11Ev(ptr noalias sret(%"class.std::__cxx11::basic_string") align 8 %agg.result, ptr noundef nonnull align 8 dereferenceable(16) %this) #0 comdat align 2 {
entry:
  %result.ptr = alloca ptr, align 8
  %this.addr = alloca ptr, align 8
  %ref.tmp = alloca %"class.std::allocator.36", align 1
  store ptr %agg.result, ptr %result.ptr, align 8
  store ptr %this, ptr %this.addr, align 8
  %this1 = load ptr, ptr %this.addr, align 8
  %Data = getelementptr inbounds %"class.llvh::StringRef", ptr %this1, i32 0, i32 0
  %0 = load ptr, ptr %Data, align 8
  %tobool = icmp ne ptr %0, null
  br i1 %tobool, label %if.end, label %if.then

if.then:                                          ; preds = %entry
  call void @_ZNSt7__cxx1112basic_stringIcSt11char_traitsIcESaIcEEC1Ev(ptr noundef nonnull align 8 dereferenceable(32) %agg.result) #10
  br label %return

if.end:                                           ; preds = %entry
  %Data2 = getelementptr inbounds %"class.llvh::StringRef", ptr %this1, i32 0, i32 0
  %1 = load ptr, ptr %Data2, align 8
  %Length = getelementptr inbounds %"class.llvh::StringRef", ptr %this1, i32 0, i32 1
  %2 = load i64, ptr %Length, align 8
  call void @_ZNSaIcEC1Ev(ptr noundef nonnull align 1 dereferenceable(1) %ref.tmp) #10
  call void @_ZNSt7__cxx1112basic_stringIcSt11char_traitsIcESaIcEEC1EPKcmRKS3_(ptr noundef nonnull align 8 dereferenceable(32) %agg.result, ptr noundef %1, i64 noundef %2, ptr noundef nonnull align 1 dereferenceable(1) %ref.tmp)
  call void @_ZNSaIcED1Ev(ptr noundef nonnull align 1 dereferenceable(1) %ref.tmp) #10
  br label %return

return:                                           ; preds = %if.end, %if.then
  ret void
}

; Function Attrs: mustprogress nounwind uwtable
define linkonce_odr hidden { ptr, i64 } @_ZNK6hermes3hbc14BCProviderBase18getStringRefFromIDEj(ptr noundef nonnull align 8 dereferenceable(280) %this, i32 noundef %stringID) #0 comdat align 2 {
entry:
  %this.addr.i = alloca ptr, align 8
  %data.addr.i = alloca ptr, align 8
  %length.addr.i = alloca i64, align 8
  %retval = alloca %"class.llvh::StringRef", align 8
  %this.addr = alloca ptr, align 8
  %stringID.addr = alloca i32, align 4
  %entry2 = alloca %"class.hermes::StringTableEntry", align 4
  %ref.tmp = alloca %"class.llvh::ArrayRef", align 8
  store ptr %this, ptr %this.addr, align 8
  store i32 %stringID, ptr %stringID.addr, align 4
  %this1 = load ptr, ptr %this.addr, align 8
  %0 = load i32, ptr %stringID.addr, align 4
  %vtable = load ptr, ptr %this1, align 8
  %vfn = getelementptr inbounds ptr, ptr %vtable, i64 1
  %1 = load ptr, ptr %vfn, align 8
  %call = call i64 %1(ptr noundef nonnull align 8 dereferenceable(280) %this1, i32 noundef %0)
  store i64 %call, ptr %entry2, align 4
  %call3 = call { ptr, i64 } @_ZNK6hermes3hbc14BCProviderBase16getStringStorageEv(ptr noundef nonnull align 8 dereferenceable(280) %this1)
  %2 = getelementptr inbounds { ptr, i64 }, ptr %ref.tmp, i32 0, i32 0
  %3 = extractvalue { ptr, i64 } %call3, 0
  store ptr %3, ptr %2, align 8
  %4 = getelementptr inbounds { ptr, i64 }, ptr %ref.tmp, i32 0, i32 1
  %5 = extractvalue { ptr, i64 } %call3, 1
  store i64 %5, ptr %4, align 8
  %call4 = call noundef ptr @_ZNK4llvh8ArrayRefIhE5beginEv(ptr noundef nonnull align 8 dereferenceable(16) %ref.tmp)
  %call5 = call noundef i32 @_ZNK6hermes16StringTableEntry9getOffsetEv(ptr noundef nonnull align 4 dereferenceable(8) %entry2)
  %idx.ext = zext i32 %call5 to i64
  %add.ptr = getelementptr inbounds i8, ptr %call4, i64 %idx.ext
  %call6 = call noundef i32 @_ZNK6hermes16StringTableEntry9getLengthEv(ptr noundef nonnull align 4 dereferenceable(8) %entry2)
  %conv = zext i32 %call6 to i64
  store ptr %retval, ptr %this.addr.i, align 8
  store ptr %add.ptr, ptr %data.addr.i, align 8
  store i64 %conv, ptr %length.addr.i, align 8
  %this1.i = load ptr, ptr %this.addr.i, align 8
  %6 = load ptr, ptr %data.addr.i, align 8
  store ptr %6, ptr %this1.i, align 8
  %Length.i = getelementptr inbounds %"class.llvh::StringRef", ptr %this1.i, i32 0, i32 1
  %7 = load i64, ptr %length.addr.i, align 8
  store i64 %7, ptr %Length.i, align 8
  %8 = load { ptr, i64 }, ptr %retval, align 8
  ret { ptr, i64 } %8
}

; Function Attrs: mustprogress nounwind uwtable
define linkonce_odr hidden noundef i32 @_ZNK6hermes3hbc21RuntimeFunctionHeader12functionNameEv(ptr noundef nonnull align 8 dereferenceable(8) %this) #0 comdat align 2 {
entry:
  %retval = alloca i32, align 4
  %this.addr = alloca ptr, align 8
  store ptr %this, ptr %this.addr, align 8
  %this1 = load ptr, ptr %this.addr, align 8
  %call = call noundef zeroext i1 @_ZNK6hermes3hbc21RuntimeFunctionHeader7isLargeEv(ptr noundef nonnull align 8 dereferenceable(8) %this1)
  br i1 %call, label %if.then, label %if.else

if.then:                                          ; preds = %entry
  %call2 = call noundef ptr @_ZNK6hermes3hbc21RuntimeFunctionHeader7asLargeEv(ptr noundef nonnull align 8 dereferenceable(8) %this1)
  %functionName = getelementptr inbounds %"struct.hermes::hbc::FunctionHeader", ptr %call2, i32 0, i32 3
  %0 = load i32, ptr %functionName, align 1
  store i32 %0, ptr %retval, align 4
  br label %return

if.else:                                          ; preds = %entry
  %call3 = call noundef ptr @_ZNK6hermes3hbc21RuntimeFunctionHeader7asSmallEv(ptr noundef nonnull align 8 dereferenceable(8) %this1)
  %bf.load = load i120, ptr %call3, align 1
  %bf.lshr = lshr i120 %bf.load, 47
  %bf.clear = and i120 %bf.lshr, 131071
  %bf.cast = trunc i120 %bf.clear to i32
  store i32 %bf.cast, ptr %retval, align 4
  br label %return

return:                                           ; preds = %if.else, %if.then
  %1 = load i32, ptr %retval, align 4
  ret i32 %1
}

; Function Attrs: mustprogress nounwind uwtable
define linkonce_odr hidden ptr @_ZNK6hermes3hbc20BCProviderFromBuffer17getFunctionHeaderEj(ptr noundef nonnull align 8 dereferenceable(376) %this, i32 noundef %functionID) unnamed_addr #0 comdat align 2 {
entry:
  %retval = alloca %"class.hermes::hbc::RuntimeFunctionHeader", align 8
  %this.addr = alloca ptr, align 8
  %functionID.addr = alloca i32, align 4
  %smallHeader = alloca ptr, align 8
  %large = alloca ptr, align 8
  store ptr %this, ptr %this.addr, align 8
  store i32 %functionID, ptr %functionID.addr, align 4
  %this1 = load ptr, ptr %this.addr, align 8
  %functionHeaders_ = getelementptr inbounds %"class.hermes::hbc::BCProviderFromBuffer", ptr %this1, i32 0, i32 3
  %0 = load ptr, ptr %functionHeaders_, align 8
  %1 = load i32, ptr %functionID.addr, align 4
  %idxprom = zext i32 %1 to i64
  %arrayidx = getelementptr inbounds %"struct.hermes::hbc::SmallFuncHeader", ptr %0, i64 %idxprom
  store ptr %arrayidx, ptr %smallHeader, align 8
  %2 = load ptr, ptr %smallHeader, align 8
  %flags = getelementptr inbounds %"struct.hermes::hbc::SmallFuncHeader", ptr %2, i32 0, i32 1
  %bf.load = load i8, ptr %flags, align 1
  %bf.lshr = lshr i8 %bf.load, 5
  %bf.clear = and i8 %bf.lshr, 1
  %bf.cast = trunc i8 %bf.clear to i1
  br i1 %bf.cast, label %if.then, label %if.else

if.then:                                          ; preds = %entry
  %bufferPtr_ = getelementptr inbounds %"class.hermes::hbc::BCProviderFromBuffer", ptr %this1, i32 0, i32 2
  %3 = load ptr, ptr %bufferPtr_, align 8
  %4 = load ptr, ptr %smallHeader, align 8
  %call = call noundef i32 @_ZNK6hermes3hbc15SmallFuncHeader20getLargeHeaderOffsetEv(ptr noundef nonnull align 1 dereferenceable(16) %4)
  %idx.ext = zext i32 %call to i64
  %add.ptr = getelementptr inbounds i8, ptr %3, i64 %idx.ext
  store ptr %add.ptr, ptr %large, align 8
  %5 = load ptr, ptr %large, align 8
  call void @_ZN6hermes3hbc21RuntimeFunctionHeaderC2EPKNS0_14FunctionHeaderE(ptr noundef nonnull align 8 dereferenceable(8) %retval, ptr noundef %5)
  br label %return

if.else:                                          ; preds = %entry
  %6 = load ptr, ptr %smallHeader, align 8
  call void @_ZN6hermes3hbc21RuntimeFunctionHeaderC2EPKNS0_15SmallFuncHeaderE(ptr noundef nonnull align 8 dereferenceable(8) %retval, ptr noundef %6)
  br label %return

return:                                           ; preds = %if.else, %if.then
  %coerce.dive = getelementptr inbounds %"class.hermes::hbc::RuntimeFunctionHeader", ptr %retval, i32 0, i32 0
  %7 = load ptr, ptr %coerce.dive, align 8
  ret ptr %7
}

; Function Attrs: mustprogress nounwind uwtable
define internal void @_ZN6hermes2vm12_GLOBAL__N_117getJSFunctionNameB5cxx11EPNS_3hbc20BCProviderFromBufferEj(ptr noalias sret(%"class.std::__cxx11::basic_string") align 8 %agg.result, ptr noundef %bcProvider, i32 noundef %funcId) #0 {
entry:
  %result.ptr = alloca ptr, align 8
  %bcProvider.addr = alloca ptr, align 8
  %funcId.addr = alloca i32, align 4
  %functionHeader = alloca %"class.hermes::hbc::RuntimeFunctionHeader", align 8
  %ref.tmp = alloca %"class.llvh::StringRef", align 8
  store ptr %agg.result, ptr %result.ptr, align 8
  store ptr %bcProvider, ptr %bcProvider.addr, align 8
  store i32 %funcId, ptr %funcId.addr, align 4
  %0 = load ptr, ptr %bcProvider.addr, align 8
  %1 = load i32, ptr %funcId.addr, align 4
  %call = call ptr @_ZNK6hermes3hbc20BCProviderFromBuffer17getFunctionHeaderEj(ptr noundef nonnull align 8 dereferenceable(376) %0, i32 noundef %1)
  %coerce.dive = getelementptr inbounds %"class.hermes::hbc::RuntimeFunctionHeader", ptr %functionHeader, i32 0, i32 0
  store ptr %call, ptr %coerce.dive, align 8
  %2 = load ptr, ptr %bcProvider.addr, align 8
  %call1 = call noundef i32 @_ZNK6hermes3hbc21RuntimeFunctionHeader12functionNameEv(ptr noundef nonnull align 8 dereferenceable(8) %functionHeader)
  %call2 = call { ptr, i64 } @_ZNK6hermes3hbc14BCProviderBase18getStringRefFromIDEj(ptr noundef nonnull align 8 dereferenceable(280) %2, i32 noundef %call1)
  %3 = getelementptr inbounds { ptr, i64 }, ptr %ref.tmp, i32 0, i32 0
  %4 = extractvalue { ptr, i64 } %call2, 0
  store ptr %4, ptr %3, align 8
  %5 = getelementptr inbounds { ptr, i64 }, ptr %ref.tmp, i32 0, i32 1
  %6 = extractvalue { ptr, i64 } %call2, 1
  store i64 %6, ptr %5, align 8
  call void @_ZNK4llvh9StringRef3strB5cxx11Ev(ptr sret(%"class.std::__cxx11::basic_string") align 8 %agg.result, ptr noundef nonnull align 8 dereferenceable(16) %ref.tmp)
  ret void
}