; Function Attrs: mustprogress nounwind uwtable
define internal fastcc void @_ZN6hermes2vm12_GLOBAL__N_117getJSFunctionNameB5cxx11EPNS_3hbc20BCProviderFromBufferEj(ptr noalias align 8 %agg.result, ptr noundef %bcProvider, i32 noundef %funcId) unnamed_addr #0 {
entry:
  %ref.tmp.i = alloca %"class.std::allocator.36", align 1
  %functionHeaders_.i = getelementptr inbounds i8, ptr %bcProvider, i64 296
  %0 = load ptr, ptr %functionHeaders_.i, align 8
  %idxprom.i = zext i32 %funcId to i64
  %arrayidx.i = getelementptr inbounds %"struct.hermes::hbc::SmallFuncHeader", ptr %0, i64 %idxprom.i
  %flags.i = getelementptr inbounds i8, ptr %arrayidx.i, i64 15
  %bf.load.i = load i8, ptr %flags.i, align 1
  %1 = and i8 %bf.load.i, 32
  %bf.cast.not.i = icmp eq i8 %1, 0
  br i1 %bf.cast.not.i, label %_ZNK6hermes3hbc20BCProviderFromBuffer17getFunctionHeaderEj.exit, label %if.then.i

if.then.i:                                        ; preds = %entry
  %bufferPtr_.i = getelementptr inbounds i8, ptr %bcProvider, i64 288
  %2 = load ptr, ptr %bufferPtr_.i, align 8
  %bf.load.i.i = load i120, ptr %arrayidx.i, align 1
  %sh.diff.i.i = lshr i120 %bf.load.i.i, 48
  %tr.sh.diff.i.i = trunc i120 %sh.diff.i.i to i64
  %shl.i.i = and i64 %tr.sh.diff.i.i, 4294901760
  %3 = trunc i120 %bf.load.i.i to i64
  %bf.cast4.i.i = and i64 %3, 33554431
  %or.i.i = or i64 %shl.i.i, %bf.cast4.i.i
  %add.ptr.i = getelementptr inbounds i8, ptr %2, i64 %or.i.i
  %add.ptr.i.i = getelementptr inbounds i8, ptr %add.ptr.i, i64 1
  br label %_ZNK6hermes3hbc20BCProviderFromBuffer17getFunctionHeaderEj.exit

_ZNK6hermes3hbc20BCProviderFromBuffer17getFunctionHeaderEj.exit: ; preds = %entry, %if.then.i
  %retval.sroa.0.0.i = phi ptr [ %add.ptr.i.i, %if.then.i ], [ %arrayidx.i, %entry ]
  %4 = ptrtoint ptr %retval.sroa.0.0.i to i64
  %and.i.i = and i64 %4, 1
  %tobool.i.not.i = icmp eq i64 %and.i.i, 0
  br i1 %tobool.i.not.i, label %if.else.i, label %if.then.i2

if.then.i2:                                       ; preds = %_ZNK6hermes3hbc20BCProviderFromBuffer17getFunctionHeaderEj.exit
  %functionName.i = getelementptr inbounds i8, ptr %retval.sroa.0.0.i, i64 11
  %5 = load i32, ptr %functionName.i, align 1
  br label %_ZNK6hermes3hbc21RuntimeFunctionHeader12functionNameEv.exit

if.else.i:                                        ; preds = %_ZNK6hermes3hbc20BCProviderFromBuffer17getFunctionHeaderEj.exit
  %bf.load.i3 = load i120, ptr %retval.sroa.0.0.i, align 1
  %bf.lshr.i = lshr i120 %bf.load.i3, 47
  %6 = trunc i120 %bf.lshr.i to i32
  %bf.cast.i = and i32 %6, 131071
  br label %_ZNK6hermes3hbc21RuntimeFunctionHeader12functionNameEv.exit

_ZNK6hermes3hbc21RuntimeFunctionHeader12functionNameEv.exit: ; preds = %if.then.i2, %if.else.i
  %retval.0.i = phi i32 [ %5, %if.then.i2 ], [ %bf.cast.i, %if.else.i ]
  %vtable.i = load ptr, ptr %bcProvider, align 8
  %vfn.i = getelementptr inbounds i8, ptr %vtable.i, i64 8
  %7 = load ptr, ptr %vfn.i, align 8
  %call.i = tail call i64 %7(ptr noundef nonnull align 8 dereferenceable(280) %bcProvider, i32 noundef %retval.0.i) #14
  %stringStorage_.i.i = getelementptr inbounds i8, ptr %bcProvider, i64 56
  %retval.sroa.0.0.copyload.i.i = load ptr, ptr %stringStorage_.i.i, align 8
  call void @llvm.lifetime.start.p0(i64 1, ptr nonnull %ref.tmp.i)
  %tobool.not.i = icmp eq ptr %retval.sroa.0.0.copyload.i.i, null
  br i1 %tobool.not.i, label %if.then.i6, label %if.end.i

if.then.i6:                                       ; preds = %_ZNK6hermes3hbc21RuntimeFunctionHeader12functionNameEv.exit
  tail call void @_ZNSt7__cxx1112basic_stringIcSt11char_traitsIcESaIcEEC1Ev(ptr noundef nonnull align 8 dereferenceable(32) %agg.result) #14
  br label %_ZNK4llvh9StringRef3strB5cxx11Ev.exit

if.end.i:                                         ; preds = %_ZNK6hermes3hbc21RuntimeFunctionHeader12functionNameEv.exit
  %idx.ext.i = and i64 %call.i, 4294967295
  %add.ptr.i4 = getelementptr inbounds i8, ptr %retval.sroa.0.0.copyload.i.i, i64 %idx.ext.i
  %entry2.sroa.2.0.extract.shift.i = lshr i64 %call.i, 32
  %and.i.i5 = and i64 %entry2.sroa.2.0.extract.shift.i, 2147483647
  call void @_ZNSaIcEC1Ev(ptr noundef nonnull align 1 dereferenceable(1) %ref.tmp.i) #14, !noalias !64
  call void @_ZNSt7__cxx1112basic_stringIcSt11char_traitsIcESaIcEEC1EPKcmRKS3_(ptr noundef nonnull align 8 dereferenceable(32) %agg.result, ptr noundef nonnull %add.ptr.i4, i64 noundef %and.i.i5, ptr noundef nonnull align 1 dereferenceable(1) %ref.tmp.i) #14
  call void @_ZNSaIcED1Ev(ptr noundef nonnull align 1 dereferenceable(1) %ref.tmp.i) #14
  br label %_ZNK4llvh9StringRef3strB5cxx11Ev.exit

_ZNK4llvh9StringRef3strB5cxx11Ev.exit:            ; preds = %if.then.i6, %if.end.i
  call void @llvm.lifetime.end.p0(i64 1, ptr nonnull %ref.tmp.i)
  ret void
}